(lp0
(dp1
Vcategory
p2
(lp3
VMobile
p4
asVadditionalInfo
p5
(lp6
sVsubCategory
p7
(lp8
VMobile Back Cover
p9
asVname
p10
VImported Printed Back Cover Lenovo K6 Power Mixed Color Graffiti & Illustrations
p11
sVtags
p12
(lp13
sVproductWarranty
p14
VNo Warranty
p15
sVpopularity
p16
I0
sVmrp
p17
I0
sVsellers
p18
(lp19
(dp20
Vname
p21
VProkure
p22
sVwarrantyInDays
p23
I0
sV_id
p24
ccopy_reg
_reconstructor
p25
(cbson.objectid
ObjectId
p26
c__builtin__
object
p27
Ntp28
Rp29
S'X\x9c \xd4\xc5,\x92"\xf4\xed\x140'
p30
bsVdata
p31
(lp32
(dp33
VvariablePrice
p34
(dp35
Vprice
p36
(lp37
I50
asVrange
p38
(lp39
I9999
assVquantity
p40
(dp41
Vmax
p42
I100
sVstep
p43
I5
sVmin
p44
I5
ssVlocation
p45
(lp46
VDELHI
p47
asVnotLocation
p48
(lp49
sa(dp50
VvariablePrice
p51
(dp52
Vprice
p53
(lp54
I53
asVrange
p55
(lp56
I9999
assVquantity
p57
(dp58
Vmax
p59
I100
sVstep
p60
I5
sVmin
p61
I5
ssVlocation
p62
(lp63
VPUNJAB
p64
asVnotLocation
p65
(lp66
sa(dp67
VvariablePrice
p68
(dp69
Vprice
p70
(lp71
I53
asVrange
p72
(lp73
I9999
assVquantity
p74
(dp75
Vmax
p76
I100
sVstep
p77
I5
sVmin
p78
I5
ssVlocation
p79
(lp80
VHARYANA
p81
asVnotLocation
p82
(lp83
sasVreturnInDays
p84
I3
sVsellerWarranty
p85
VNo Warranty
p86
sasV__v
p87
I1
sVvideo
p88
(dp89
sVsubCategoryFilters
p90
(dp91
VMobile
p92
(lp93
VLenovo
p94
asVPackaging
p95
(lp96
VNo
p97
asVBrand
p98
(lp99
VImported
p100
asVMaterial
p101
(lp102
VPlastic
p103
asVType
p104
(lp105
VPrinted
p106
assVupdatedAt
p107
cdatetime
datetime
p108
(S'\x07\xe1\x05\x19\x105\x1d\n\x19\xf0'
p109
tp110
Rp111
sVimages
p112
(lp113
(dp114
Vurl
p115
Vhttps://res.cloudinary.com/prokure/image/upload/v1489834479/03_zps9tcwdfbk_pstdsz.webp
p116
sVdefault
p117
I01
sasVdetails
p118
(lp119
(dp120
Vvalue
p121
VImported
p122
sVkey
p123
VBrand
p124
sa(dp125
Vvalue
p126
VPrinted
p127
sVkey
p128
VType
p129
sa(dp130
Vvalue
p131
VLenovo
p132
sVkey
p133
VMobile
p134
sa(dp135
Vvalue
p136
VNo
p137
sVkey
p138
VPackaging
p139
sa(dp140
Vvalue
p141
VPlastic
p142
sVkey
p143
VMaterial
p144
sasV_id
p145
g25
(g26
g27
Ntp146
Rp147
S'X\xfd\xf6<\xa5\xb2\xb13\x16\xd5=F'
p148
bsVcreatedAt
p149
g108
(S'\x07\xe1\x04\x18\x0c9%\x0eW\xe0'
p150
tp151
Rp152
sVproduct_id
p153
g25
(g26
g27
Ntp154
Rp155
S'X\xcdHJ\xf2\x03\x9c\x00\x0fS\x05\xb7'
p156
bsa(dp157
Vcategory
p158
(lp159
VMobile
p160
asVadditionalInfo
p161
(lp162
sVsubCategory
p163
(lp164
VMobile Back Cover
p165
asVname
p166
VImported Loopee Back Cover Lenovo K5 Plus Mixed Color
p167
sVtags
p168
(lp169
sVproductWarranty
p170
VNo Warranty
p171
sVpopularity
p172
I0
sVmrp
p173
I0
sVsellers
p174
(lp175
(dp176
Vname
p177
VProkure
p178
sVwarrantyInDays
p179
I0
sV_id
p180
g25
(g26
g27
Ntp181
Rp182
S'X\xa6\xa5s@\x8e\x18>\x00\xb4\xd0\xdd'
p183
bsVdata
p184
(lp185
(dp186
VvariablePrice
p187
(dp188
Vprice
p189
(lp190
I38
asVrange
p191
(lp192
I9999
assVquantity
p193
(dp194
Vmax
p195
I100
sVstep
p196
I10
sVmin
p197
I10
ssVlocation
p198
(lp199
VDELHI
p200
asVnotLocation
p201
(lp202
sa(dp203
VvariablePrice
p204
(dp205
Vprice
p206
(lp207
I40
asVrange
p208
(lp209
I9999
assVquantity
p210
(dp211
Vmax
p212
I100
sVstep
p213
I10
sVmin
p214
I10
ssVlocation
p215
(lp216
VPUNJAB
p217
asVnotLocation
p218
(lp219
sa(dp220
VvariablePrice
p221
(dp222
Vprice
p223
(lp224
I40
asVrange
p225
(lp226
I9999
assVquantity
p227
(dp228
Vmax
p229
I100
sVstep
p230
I10
sVmin
p231
I10
ssVlocation
p232
(lp233
VHARYANA
p234
asVnotLocation
p235
(lp236
sasVreturnInDays
p237
I2
sVsellerWarranty
p238
VNo Warranty
p239
sasV__v
p240
I1
sVvideo
p241
(dp242
sVsubCategoryFilters
p243
(dp244
VMobile
p245
(lp246
VLenovo
p247
asVPackaging
p248
(lp249
VNo
p250
asVBrand
p251
(lp252
VImported
p253
asVMaterial
p254
(lp255
VPlastic
p256
asVType
p257
(lp258
VLoopee
p259
assVupdatedAt
p260
g108
(S'\x07\xe1\x05\x19\x105+\x04A\xd8'
p261
tp262
Rp263
sVimages
p264
(lp265
(dp266
Vurl
p267
Vhttps://res.cloudinary.com/prokure/image/upload/v1491560852/Loopeo_hbntxp.webp
p268
sVdefault
p269
I01
sasVdetails
p270
(lp271
(dp272
Vvalue
p273
VImported
p274
sVkey
p275
VBrand
p276
sa(dp277
Vvalue
p278
VLoopee
p279
sVkey
p280
VType
p281
sa(dp282
Vvalue
p283
VLenovo
p284
sVkey
p285
VMobile
p286
sa(dp287
Vvalue
p288
VNo
p289
sVkey
p290
VPackaging
p291
sa(dp292
Vvalue
p293
VPlastic
p294
sVkey
p295
VMaterial
p296
sasV_id
p297
g25
(g26
g27
Ntp298
Rp299
S'X\xfd\xf6=\xa5\xb2\xb13\x16\xd5?\xce'
p300
bsVcreatedAt
p301
g108
(S'\x07\xe1\x04\x18\x0c9%\x0e\xa2\x18'
p302
tp303
Rp304
sVproduct_id
p305
g25
(g26
g27
Ntp306
Rp307
S'X\xd1<\xf0\x9d6y\x00\x10>\xdc\xb4'
p308
bsa(dp309
Vcategory
p310
(lp311
VMobile
p312
asVadditionalInfo
p313
(lp314
sVsubCategory
p315
(lp316
VMobile Back Cover
p317
asVname
p318
VImported Loopee Back Cover Xiaomi Redmi 3S Mixed Color
p319
sVtags
p320
(lp321
sVproductWarranty
p322
VNo Warranty
p323
sVpopularity
p324
I0
sVmrp
p325
I0
sVsellers
p326
(lp327
(dp328
Vname
p329
VProkure
p330
sVwarrantyInDays
p331
I0
sV_id
p332
g25
(g26
g27
Ntp333
Rp334
S'X\xa6\xa5s@\x8e\x18>\x00\xb4\xd0\xdd'
p335
bsVdata
p336
(lp337
(dp338
VvariablePrice
p339
(dp340
Vprice
p341
(lp342
I38
asVrange
p343
(lp344
I9999
assVquantity
p345
(dp346
Vmax
p347
I100
sVstep
p348
I10
sVmin
p349
I10
ssVlocation
p350
(lp351
VDELHI
p352
asVnotLocation
p353
(lp354
sa(dp355
VvariablePrice
p356
(dp357
Vprice
p358
(lp359
I40
asVrange
p360
(lp361
I9999
assVquantity
p362
(dp363
Vmax
p364
I100
sVstep
p365
I10
sVmin
p366
I10
ssVlocation
p367
(lp368
VPUNJAB
p369
asVnotLocation
p370
(lp371
sa(dp372
VvariablePrice
p373
(dp374
Vprice
p375
(lp376
I40
asVrange
p377
(lp378
I9999
assVquantity
p379
(dp380
Vmax
p381
I100
sVstep
p382
I10
sVmin
p383
I10
ssVlocation
p384
(lp385
VHARYANA
p386
asVnotLocation
p387
(lp388
sasVreturnInDays
p389
I2
sVsellerWarranty
p390
VNo Warranty
p391
sasV__v
p392
I1
sVvideo
p393
(dp394
sVsubCategoryFilters
p395
(dp396
VMobile
p397
(lp398
VXiaomi
p399
asVPackaging
p400
(lp401
VNo
p402
asVBrand
p403
(lp404
VImported
p405
asVMaterial
p406
(lp407
VPlastic
p408
asVType
p409
(lp410
VLoopee
p411
assVupdatedAt
p412
g108
(S'\x07\xe1\x05\x19\x105+\x05\x01@'
p413
tp414
Rp415
sVimages
p416
(lp417
(dp418
Vurl
p419
Vhttps://res.cloudinary.com/prokure/image/upload/v1491560852/Loopeo_hbntxp.webp
p420
sVdefault
p421
I01
sasVdetails
p422
(lp423
(dp424
Vvalue
p425
VImported
p426
sVkey
p427
VBrand
p428
sa(dp429
Vvalue
p430
VLoopee
p431
sVkey
p432
VType
p433
sa(dp434
Vvalue
p435
VXiaomi
p436
sVkey
p437
VMobile
p438
sa(dp439
Vvalue
p440
VNo
p441
sVkey
p442
VPackaging
p443
sa(dp444
Vvalue
p445
VPlastic
p446
sVkey
p447
VMaterial
p448
sasV_id
p449
g25
(g26
g27
Ntp450
Rp451
S'X\xfd\xf6=\xa5\xb2\xb13\x16\xd5?\xea'
p452
bsVcreatedAt
p453
g108
(S'\x07\xe1\x04\x18\x0c9%\x0e\xa2\x18'
p454
tp455
Rp456
sVproduct_id
p457
g25
(g26
g27
Ntp458
Rp459
S'X\xd1<\xf1\x9d6y\x00\x10>\xdc\xe5'
p460
bsa(dp461
Vcategory
p462
(lp463
VMobile
p464
asVadditionalInfo
p465
(lp466
sVsubCategory
p467
(lp468
VMobile Back Cover
p469
asVname
p470
VImported Loopee Back Cover Gionee S6 Pro Mixed Color
p471
sVtags
p472
(lp473
sVproductWarranty
p474
VNo Warranty
p475
sVpopularity
p476
I0
sVmrp
p477
I0
sVsellers
p478
(lp479
(dp480
Vname
p481
VProkure
p482
sVwarrantyInDays
p483
I0
sV_id
p484
g25
(g26
g27
Ntp485
Rp486
S'X\xa6\xa5s@\x8e\x18>\x00\xb4\xd0\xdd'
p487
bsVdata
p488
(lp489
(dp490
VvariablePrice
p491
(dp492
Vprice
p493
(lp494
I38
asVrange
p495
(lp496
I9999
assVquantity
p497
(dp498
Vmax
p499
I100
sVstep
p500
I10
sVmin
p501
I10
ssVlocation
p502
(lp503
VDELHI
p504
asVnotLocation
p505
(lp506
sa(dp507
VvariablePrice
p508
(dp509
Vprice
p510
(lp511
I40
asVrange
p512
(lp513
I9999
assVquantity
p514
(dp515
Vmax
p516
I100
sVstep
p517
I10
sVmin
p518
I10
ssVlocation
p519
(lp520
VPUNJAB
p521
asVnotLocation
p522
(lp523
sa(dp524
VvariablePrice
p525
(dp526
Vprice
p527
(lp528
I40
asVrange
p529
(lp530
I9999
assVquantity
p531
(dp532
Vmax
p533
I100
sVstep
p534
I10
sVmin
p535
I10
ssVlocation
p536
(lp537
VHARYANA
p538
asVnotLocation
p539
(lp540
sasVreturnInDays
p541
I2
sVsellerWarranty
p542
VNo Warranty
p543
sasV__v
p544
I1
sVvideo
p545
(dp546
sVsubCategoryFilters
p547
(dp548
VMobile
p549
(lp550
VGionee
p551
asVPackaging
p552
(lp553
VNo
p554
asVBrand
p555
(lp556
VImported
p557
asVMaterial
p558
(lp559
VPlastic
p560
asVType
p561
(lp562
VLoopee
p563
assVupdatedAt
p564
g108
(S'\x07\xe1\x05\x19\x105+\x06Y\x00'
p565
tp566
Rp567
sVimages
p568
(lp569
(dp570
Vurl
p571
Vhttps://res.cloudinary.com/prokure/image/upload/v1491560852/Loopeo_hbntxp.webp
p572
sVdefault
p573
I01
sasVdetails
p574
(lp575
(dp576
Vvalue
p577
VImported
p578
sVkey
p579
VBrand
p580
sa(dp581
Vvalue
p582
VLoopee
p583
sVkey
p584
VType
p585
sa(dp586
Vvalue
p587
VGionee
p588
sVkey
p589
VMobile
p590
sa(dp591
Vvalue
p592
VNo
p593
sVkey
p594
VPackaging
p595
sa(dp596
Vvalue
p597
VPlastic
p598
sVkey
p599
VMaterial
p600
sasV_id
p601
g25
(g26
g27
Ntp602
Rp603
S'X\xfd\xf6=\xa5\xb2\xb13\x16\xd5@\x16'
p604
bsVcreatedAt
p605
g108
(S'\x07\xe1\x04\x18\x0c9%\x0e\xa6\x00'
p606
tp607
Rp608
sVproduct_id
p609
g25
(g26
g27
Ntp610
Rp611
S'X\xd1<\xf3\x9d6y\x00\x10>\xdd2'
p612
bsa(dp613
Vcategory
p614
(lp615
VMobile
p616
asVadditionalInfo
p617
(lp618
sVsubCategory
p619
(lp620
VMobile Back Cover
p621
asVname
p622
VImported Loopee Back Cover Coolpad Cool 1 Mixed Color
p623
sVtags
p624
(lp625
sVproductWarranty
p626
VNo Warranty
p627
sVpopularity
p628
I0
sVmrp
p629
I0
sVsellers
p630
(lp631
(dp632
Vname
p633
VProkure
p634
sVwarrantyInDays
p635
I0
sV_id
p636
g25
(g26
g27
Ntp637
Rp638
S'X\xa6\xa5s@\x8e\x18>\x00\xb4\xd0\xdd'
p639
bsVdata
p640
(lp641
(dp642
VvariablePrice
p643
(dp644
Vprice
p645
(lp646
I38
asVrange
p647
(lp648
I9999
assVquantity
p649
(dp650
Vmax
p651
I100
sVstep
p652
I10
sVmin
p653
I10
ssVlocation
p654
(lp655
VDELHI
p656
asVnotLocation
p657
(lp658
sa(dp659
VvariablePrice
p660
(dp661
Vprice
p662
(lp663
I40
asVrange
p664
(lp665
I9999
assVquantity
p666
(dp667
Vmax
p668
I100
sVstep
p669
I10
sVmin
p670
I10
ssVlocation
p671
(lp672
VPUNJAB
p673
asVnotLocation
p674
(lp675
sa(dp676
VvariablePrice
p677
(dp678
Vprice
p679
(lp680
I40
asVrange
p681
(lp682
I9999
assVquantity
p683
(dp684
Vmax
p685
I100
sVstep
p686
I10
sVmin
p687
I10
ssVlocation
p688
(lp689
VHARYANA
p690
asVnotLocation
p691
(lp692
sasVreturnInDays
p693
I2
sVsellerWarranty
p694
VNo Warranty
p695
sasV__v
p696
I1
sVvideo
p697
(dp698
sVsubCategoryFilters
p699
(dp700
VMobile
p701
(lp702
VCoolpad
p703
asVPackaging
p704
(lp705
VNo
p706
asVBrand
p707
(lp708
VImported
p709
asVMaterial
p710
(lp711
VPlastic
p712
asVType
p713
(lp714
VLoopee
p715
assVupdatedAt
p716
g108
(S'\x07\xe1\x05\x19\x105+\x08E0'
p717
tp718
Rp719
sVimages
p720
(lp721
(dp722
Vurl
p723
Vhttps://res.cloudinary.com/prokure/image/upload/v1491560852/Loopeo_hbntxp.webp
p724
sVdefault
p725
I01
sasVdetails
p726
(lp727
(dp728
Vvalue
p729
VImported
p730
sVkey
p731
VBrand
p732
sa(dp733
Vvalue
p734
VLoopee
p735
sVkey
p736
VType
p737
sa(dp738
Vvalue
p739
VCoolpad
p740
sVkey
p741
VMobile
p742
sa(dp743
Vvalue
p744
VNo
p745
sVkey
p746
VPackaging
p747
sa(dp748
Vvalue
p749
VPlastic
p750
sVkey
p751
VMaterial
p752
sasV_id
p753
g25
(g26
g27
Ntp754
Rp755
S'X\xfd\xf6=\xa5\xb2\xb13\x16\xd5@J'
p756
bsVcreatedAt
p757
g108
(S'\x07\xe1\x04\x18\x0c9%\x0e\xad\xd0'
p758
tp759
Rp760
sVproduct_id
p761
g25
(g26
g27
Ntp762
Rp763
S'X\xd1<\xf5\x9d6y\x00\x10>\xdd\x8d'
p764
bsa(dp765
Vcategory
p766
(lp767
VMobile
p768
asVadditionalInfo
p769
(lp770
sVsubCategory
p771
(lp772
VMobile Back Cover
p773
asVname
p774
VImported Loopee Back Cover Lyf Water 9 Mixed Color
p775
sVtags
p776
(lp777
sVproductWarranty
p778
VNo Warranty
p779
sVpopularity
p780
I0
sVmrp
p781
I0
sVsellers
p782
(lp783
(dp784
Vname
p785
VProkure
p786
sVwarrantyInDays
p787
I0
sV_id
p788
g25
(g26
g27
Ntp789
Rp790
S'X\xa6\xa5s@\x8e\x18>\x00\xb4\xd0\xdd'
p791
bsVdata
p792
(lp793
(dp794
VvariablePrice
p795
(dp796
Vprice
p797
(lp798
I38
asVrange
p799
(lp800
I9999
assVquantity
p801
(dp802
Vmax
p803
I100
sVstep
p804
I10
sVmin
p805
I10
ssVlocation
p806
(lp807
VDELHI
p808
asVnotLocation
p809
(lp810
sa(dp811
VvariablePrice
p812
(dp813
Vprice
p814
(lp815
I40
asVrange
p816
(lp817
I9999
assVquantity
p818
(dp819
Vmax
p820
I100
sVstep
p821
I10
sVmin
p822
I10
ssVlocation
p823
(lp824
VPUNJAB
p825
asVnotLocation
p826
(lp827
sa(dp828
VvariablePrice
p829
(dp830
Vprice
p831
(lp832
I40
asVrange
p833
(lp834
I9999
assVquantity
p835
(dp836
Vmax
p837
I100
sVstep
p838
I10
sVmin
p839
I10
ssVlocation
p840
(lp841
VHARYANA
p842
asVnotLocation
p843
(lp844
sasVreturnInDays
p845
I2
sVsellerWarranty
p846
VNo Warranty
p847
sasV__v
p848
I1
sVvideo
p849
(dp850
sVsubCategoryFilters
p851
(dp852
VMobile
p853
(lp854
VLyf
p855
asVPackaging
p856
(lp857
VNo
p858
asVBrand
p859
(lp860
VImported
p861
asVMaterial
p862
(lp863
VPlastic
p864
asVType
p865
(lp866
VLoopee
p867
assVupdatedAt
p868
g108
(S'\x07\xe1\x05\x19\x105+\nA\x00'
p869
tp870
Rp871
sVimages
p872
(lp873
(dp874
Vurl
p875
Vhttps://res.cloudinary.com/prokure/image/upload/v1491560852/Loopeo_hbntxp.webp
p876
sVdefault
p877
I01
sasVdetails
p878
(lp879
(dp880
Vvalue
p881
VImported
p882
sVkey
p883
VBrand
p884
sa(dp885
Vvalue
p886
VLoopee
p887
sVkey
p888
VType
p889
sa(dp890
Vvalue
p891
VLyf
p892
sVkey
p893
VMobile
p894
sa(dp895
Vvalue
p896
VNo
p897
sVkey
p898
VPackaging
p899
sa(dp900
Vvalue
p901
VPlastic
p902
sVkey
p903
VMaterial
p904
sasV_id
p905
g25
(g26
g27
Ntp906
Rp907
S'X\xfd\xf6=\xa5\xb2\xb13\x16\xd5@r'
p908
bsVcreatedAt
p909
g108
(S'\x07\xe1\x04\x18\x0c9%\x0e\xb1\xb8'
p910
tp911
Rp912
sVproduct_id
p913
g25
(g26
g27
Ntp914
Rp915
S'X\xd1<\xf6\x9d6y\x00\x10>\xdd\xd3'
p916
bsa(dp917
Vcategory
p918
(lp919
VMobile
p920
asVadditionalInfo
p921
(lp922
sVsubCategory
p923
(lp924
VMobile Back Cover
p925
asVname
p926
VImported Meephone Back Cover Samsung G355 Gold
p927
sVtags
p928
(lp929
sVproductWarranty
p930
VNo Warranty
p931
sVpopularity
p932
I0
sVmrp
p933
I0
sVsellers
p934
(lp935
(dp936
Vname
p937
VProkure
p938
sVwarrantyInDays
p939
I0
sV_id
p940
g25
(g26
g27
Ntp941
Rp942
S'X\xea\x13\x8e1\xa8m\x00\x0ft\xe1w'
p943
bsVdata
p944
(lp945
(dp946
VvariablePrice
p947
(dp948
Vprice
p949
(lp950
I30
asVrange
p951
(lp952
I9999
assVquantity
p953
(dp954
Vmax
p955
I100
sVstep
p956
I2
sVmin
p957
I2
ssVlocation
p958
(lp959
VDELHI
p960
asVnotLocation
p961
(lp962
sa(dp963
VvariablePrice
p964
(dp965
Vprice
p966
(lp967
I32
asVrange
p968
(lp969
I9999
assVquantity
p970
(dp971
Vmax
p972
I100
sVstep
p973
I2
sVmin
p974
I2
ssVlocation
p975
(lp976
VPUNJAB
p977
asVnotLocation
p978
(lp979
sa(dp980
VvariablePrice
p981
(dp982
Vprice
p983
(lp984
I32
asVrange
p985
(lp986
I9999
assVquantity
p987
(dp988
Vmax
p989
I100
sVstep
p990
I2
sVmin
p991
I2
ssVlocation
p992
(lp993
VHARYANA
p994
asVnotLocation
p995
(lp996
sasVreturnInDays
p997
I2
sVsellerWarranty
p998
VNo Warranty
p999
sasV__v
p1000
I1
sVvideo
p1001
(dp1002
sVsubCategoryFilters
p1003
(dp1004
VMobile
p1005
(lp1006
VSamsung
p1007
asVPackaging
p1008
(lp1009
VNo
p1010
asVBrand
p1011
(lp1012
VImported
p1013
asVMaterial
p1014
(lp1015
VSilicon
p1016
asVType
p1017
(lp1018
VMeephone
p1019
assVupdatedAt
p1020
g108
(S'\x07\xe1\x05\x19\x105+\x0c8\xe8'
p1021
tp1022
Rp1023
sVimages
p1024
(lp1025
(dp1026
Vurl
p1027
Vhttps://res.cloudinary.com/prokure/image/upload/v1490098402/Mephone_20Back_20Cover47-600x550_cfsoxy.webp
p1028
sVdefault
p1029
I01
sasVdetails
p1030
(lp1031
(dp1032
Vvalue
p1033
VImported
p1034
sVkey
p1035
VBrand
p1036
sa(dp1037
Vvalue
p1038
VMeephone
p1039
sVkey
p1040
VType
p1041
sa(dp1042
Vvalue
p1043
VSamsung
p1044
sVkey
p1045
VMobile
p1046
sa(dp1047
Vvalue
p1048
VNo
p1049
sVkey
p1050
VPackaging
p1051
sa(dp1052
Vvalue
p1053
VSilicon
p1054
sVkey
p1055
VMaterial
p1056
sasV_id
p1057
g25
(g26
g27
Ntp1058
Rp1059
S'X\xfd\xf6=\xa5\xb2\xb13\x16\xd5@\x86'
p1060
bsVcreatedAt
p1061
g108
(S'\x07\xe1\x04\x18\x0c9%\x0e\xb1\xb8'
p1062
tp1063
Rp1064
sVproduct_id
p1065
g25
(g26
g27
Ntp1066
Rp1067
S'X\xd1<\xf8\x9d6y\x00\x10>\xde('
p1068
bsa(dp1069
Vcategory
p1070
(lp1071
VMobile
p1072
asVadditionalInfo
p1073
(lp1074
sVsubCategory
p1075
(lp1076
VMobile Back Cover
p1077
asVname
p1078
VImported Meephone Back Cover Samsung G313 Gold
p1079
sVtags
p1080
(lp1081
sVproductWarranty
p1082
VNo Warranty
p1083
sVpopularity
p1084
I0
sVmrp
p1085
I0
sVsellers
p1086
(lp1087
(dp1088
Vname
p1089
VProkure
p1090
sVwarrantyInDays
p1091
I0
sV_id
p1092
g25
(g26
g27
Ntp1093
Rp1094
S'X\xea\x13\x8e1\xa8m\x00\x0ft\xe1w'
p1095
bsVdata
p1096
(lp1097
(dp1098
VvariablePrice
p1099
(dp1100
Vprice
p1101
(lp1102
I30
asVrange
p1103
(lp1104
I9999
assVquantity
p1105
(dp1106
Vmax
p1107
I100
sVstep
p1108
I2
sVmin
p1109
I2
ssVlocation
p1110
(lp1111
VDELHI
p1112
asVnotLocation
p1113
(lp1114
sa(dp1115
VvariablePrice
p1116
(dp1117
Vprice
p1118
(lp1119
I32
asVrange
p1120
(lp1121
I9999
assVquantity
p1122
(dp1123
Vmax
p1124
I100
sVstep
p1125
I2
sVmin
p1126
I2
ssVlocation
p1127
(lp1128
VPUNJAB
p1129
asVnotLocation
p1130
(lp1131
sa(dp1132
VvariablePrice
p1133
(dp1134
Vprice
p1135
(lp1136
I32
asVrange
p1137
(lp1138
I9999
assVquantity
p1139
(dp1140
Vmax
p1141
I100
sVstep
p1142
I2
sVmin
p1143
I2
ssVlocation
p1144
(lp1145
VHARYANA
p1146
asVnotLocation
p1147
(lp1148
sasVreturnInDays
p1149
I2
sVsellerWarranty
p1150
VNo Warranty
p1151
sasV__v
p1152
I1
sVvideo
p1153
(dp1154
sVsubCategoryFilters
p1155
(dp1156
VMobile
p1157
(lp1158
VSamsung
p1159
asVPackaging
p1160
(lp1161
VNo
p1162
asVBrand
p1163
(lp1164
VImported
p1165
asVMaterial
p1166
(lp1167
VSilicon
p1168
asVType
p1169
(lp1170
VMeephone
p1171
assVupdatedAt
p1172
g108
(S'\x07\xe1\x05\x19\x105+\x0e)\x00'
p1173
tp1174
Rp1175
sVimages
p1176
(lp1177
(dp1178
Vurl
p1179
Vhttps://res.cloudinary.com/prokure/image/upload/v1490098402/Mephone_20Back_20Cover47-600x550_cfsoxy.webp
p1180
sVdefault
p1181
I01
sasVdetails
p1182
(lp1183
(dp1184
Vvalue
p1185
VImported
p1186
sVkey
p1187
VBrand
p1188
sa(dp1189
Vvalue
p1190
VMeephone
p1191
sVkey
p1192
VType
p1193
sa(dp1194
Vvalue
p1195
VSamsung
p1196
sVkey
p1197
VMobile
p1198
sa(dp1199
Vvalue
p1200
VNo
p1201
sVkey
p1202
VPackaging
p1203
sa(dp1204
Vvalue
p1205
VSilicon
p1206
sVkey
p1207
VMaterial
p1208
sasV_id
p1209
g25
(g26
g27
Ntp1210
Rp1211
S'X\xfd\xf6=\xa5\xb2\xb13\x16\xd5@\x9e'
p1212
bsVcreatedAt
p1213
g108
(S'\x07\xe1\x04\x18\x0c9%\x0e\xb5\xa0'
p1214
tp1215
Rp1216
sVproduct_id
p1217
g25
(g26
g27
Ntp1218
Rp1219
S'X\xd1<\xfa\x9d6y\x00\x10>\xdeu'
p1220
bsa(dp1221
Vcategory
p1222
(lp1223
VMobile
p1224
asVadditionalInfo
p1225
(lp1226
sVsubCategory
p1227
(lp1228
VMobile Back Cover
p1229
asVname
p1230
VImported Meephone Back Cover Gionee P5W Gold
p1231
sVtags
p1232
(lp1233
sVproductWarranty
p1234
VNo Warranty
p1235
sVpopularity
p1236
I0
sVmrp
p1237
I0
sVsellers
p1238
(lp1239
(dp1240
Vname
p1241
VProkure
p1242
sVwarrantyInDays
p1243
I0
sV_id
p1244
g25
(g26
g27
Ntp1245
Rp1246
S'X\xea\x13\x8e1\xa8m\x00\x0ft\xe1w'
p1247
bsVdata
p1248
(lp1249
(dp1250
VvariablePrice
p1251
(dp1252
Vprice
p1253
(lp1254
I30
asVrange
p1255
(lp1256
I9999
assVquantity
p1257
(dp1258
Vmax
p1259
I100
sVstep
p1260
I2
sVmin
p1261
I2
ssVlocation
p1262
(lp1263
VDELHI
p1264
asVnotLocation
p1265
(lp1266
sa(dp1267
VvariablePrice
p1268
(dp1269
Vprice
p1270
(lp1271
I32
asVrange
p1272
(lp1273
I9999
assVquantity
p1274
(dp1275
Vmax
p1276
I100
sVstep
p1277
I2
sVmin
p1278
I2
ssVlocation
p1279
(lp1280
VPUNJAB
p1281
asVnotLocation
p1282
(lp1283
sa(dp1284
VvariablePrice
p1285
(dp1286
Vprice
p1287
(lp1288
I32
asVrange
p1289
(lp1290
I9999
assVquantity
p1291
(dp1292
Vmax
p1293
I100
sVstep
p1294
I2
sVmin
p1295
I2
ssVlocation
p1296
(lp1297
VHARYANA
p1298
asVnotLocation
p1299
(lp1300
sasVreturnInDays
p1301
I2
sVsellerWarranty
p1302
VNo Warranty
p1303
sasV__v
p1304
I1
sVvideo
p1305
(dp1306
sVsubCategoryFilters
p1307
(dp1308
VMobile
p1309
(lp1310
VGionee
p1311
asVPackaging
p1312
(lp1313
VNo
p1314
asVBrand
p1315
(lp1316
VImported
p1317
asVMaterial
p1318
(lp1319
VSilicon
p1320
asVType
p1321
(lp1322
VMeephone
p1323
assVupdatedAt
p1324
g108
(S'\x07\xe1\x05\x19\x105,\x00\xe6x'
p1325
tp1326
Rp1327
sVimages
p1328
(lp1329
(dp1330
Vurl
p1331
Vhttps://res.cloudinary.com/prokure/image/upload/v1490098402/Mephone_20Back_20Cover47-600x550_cfsoxy.webp
p1332
sVdefault
p1333
I01
sasVdetails
p1334
(lp1335
(dp1336
Vvalue
p1337
VImported
p1338
sVkey
p1339
VBrand
p1340
sa(dp1341
Vvalue
p1342
VMeephone
p1343
sVkey
p1344
VType
p1345
sa(dp1346
Vvalue
p1347
VGionee
p1348
sVkey
p1349
VMobile
p1350
sa(dp1351
Vvalue
p1352
VNo
p1353
sVkey
p1354
VPackaging
p1355
sa(dp1356
Vvalue
p1357
VSilicon
p1358
sVkey
p1359
VMaterial
p1360
sasV_id
p1361
g25
(g26
g27
Ntp1362
Rp1363
S'X\xfd\xf6=\xa5\xb2\xb13\x16\xd5@\xca'
p1364
bsVcreatedAt
p1365
g108
(S'\x07\xe1\x04\x18\x0c9%\x0e\xb9\x88'
p1366
tp1367
Rp1368
sVproduct_id
p1369
g25
(g26
g27
Ntp1370
Rp1371
S'X\xd1<\xfc\x9d6y\x00\x10>\xde\xd7'
p1372
bsa(dp1373
Vcategory
p1374
(lp1375
VMobile
p1376
asVadditionalInfo
p1377
(lp1378
sVsubCategory
p1379
(lp1380
VMobile Back Cover
p1381
asVname
p1382
VImported Meephone Back Cover Lenovo K4 Note Gold
p1383
sVtags
p1384
(lp1385
sVproductWarranty
p1386
VNo Warranty
p1387
sVpopularity
p1388
I0
sVmrp
p1389
I0
sVsellers
p1390
(lp1391
(dp1392
Vname
p1393
VProkure
p1394
sVwarrantyInDays
p1395
I0
sV_id
p1396
g25
(g26
g27
Ntp1397
Rp1398
S'X\xea\x13\x8e1\xa8m\x00\x0ft\xe1w'
p1399
bsVdata
p1400
(lp1401
(dp1402
VvariablePrice
p1403
(dp1404
Vprice
p1405
(lp1406
I30
asVrange
p1407
(lp1408
I9999
assVquantity
p1409
(dp1410
Vmax
p1411
I100
sVstep
p1412
I2
sVmin
p1413
I2
ssVlocation
p1414
(lp1415
VDELHI
p1416
asVnotLocation
p1417
(lp1418
sa(dp1419
VvariablePrice
p1420
(dp1421
Vprice
p1422
(lp1423
I32
asVrange
p1424
(lp1425
I9999
assVquantity
p1426
(dp1427
Vmax
p1428
I100
sVstep
p1429
I2
sVmin
p1430
I2
ssVlocation
p1431
(lp1432
VPUNJAB
p1433
asVnotLocation
p1434
(lp1435
sa(dp1436
VvariablePrice
p1437
(dp1438
Vprice
p1439
(lp1440
I32
asVrange
p1441
(lp1442
I9999
assVquantity
p1443
(dp1444
Vmax
p1445
I100
sVstep
p1446
I2
sVmin
p1447
I2
ssVlocation
p1448
(lp1449
VHARYANA
p1450
asVnotLocation
p1451
(lp1452
sasVreturnInDays
p1453
I2
sVsellerWarranty
p1454
VNo Warranty
p1455
sasV__v
p1456
I1
sVvideo
p1457
(dp1458
sVsubCategoryFilters
p1459
(dp1460
VMobile
p1461
(lp1462
VLenovo
p1463
asVPackaging
p1464
(lp1465
VNo
p1466
asVBrand
p1467
(lp1468
VImported
p1469
asVMaterial
p1470
(lp1471
VSilicon
p1472
asVType
p1473
(lp1474
VMeephone
p1475
assVupdatedAt
p1476
g108
(S'\x07\xe1\x05\x19\x105,\x02\xe2H'
p1477
tp1478
Rp1479
sVimages
p1480
(lp1481
(dp1482
Vurl
p1483
Vhttps://res.cloudinary.com/prokure/image/upload/v1490098402/Mephone_20Back_20Cover47-600x550_cfsoxy.webp
p1484
sVdefault
p1485
I01
sasVdetails
p1486
(lp1487
(dp1488
Vvalue
p1489
VImported
p1490
sVkey
p1491
VBrand
p1492
sa(dp1493
Vvalue
p1494
VMeephone
p1495
sVkey
p1496
VType
p1497
sa(dp1498
Vvalue
p1499
VLenovo
p1500
sVkey
p1501
VMobile
p1502
sa(dp1503
Vvalue
p1504
VNo
p1505
sVkey
p1506
VPackaging
p1507
sa(dp1508
Vvalue
p1509
VSilicon
p1510
sVkey
p1511
VMaterial
p1512
sasV_id
p1513
g25
(g26
g27
Ntp1514
Rp1515
S'X\xfd\xf6=\xa5\xb2\xb13\x16\xd5@\xe2'
p1516
bsVcreatedAt
p1517
g108
(S'\x07\xe1\x04\x18\x0c9%\x0e\xbdp'
p1518
tp1519
Rp1520
sVproduct_id
p1521
g25
(g26
g27
Ntp1522
Rp1523
S'X\xd1<\xfd\x9d6y\x00\x10>\xdf\x08'
p1524
bsa(dp1525
Vcategory
p1526
(lp1527
VMobile
p1528
asVadditionalInfo
p1529
(lp1530
sVsubCategory
p1531
(lp1532
VMobile Back Cover
p1533
asVname
p1534
VImported Meephone Back Cover Apple iPhone 6G Gold
p1535
sVtags
p1536
(lp1537
sVproductWarranty
p1538
VNo Warranty
p1539
sVpopularity
p1540
I0
sVmrp
p1541
I0
sVsellers
p1542
(lp1543
(dp1544
Vname
p1545
VProkure
p1546
sVwarrantyInDays
p1547
I0
sV_id
p1548
g25
(g26
g27
Ntp1549
Rp1550
S'X\xea\x13\x8e1\xa8m\x00\x0ft\xe1w'
p1551
bsVdata
p1552
(lp1553
(dp1554
VvariablePrice
p1555
(dp1556
Vprice
p1557
(lp1558
I30
asVrange
p1559
(lp1560
I9999
assVquantity
p1561
(dp1562
Vmax
p1563
I100
sVstep
p1564
I2
sVmin
p1565
I2
ssVlocation
p1566
(lp1567
VDELHI
p1568
asVnotLocation
p1569
(lp1570
sa(dp1571
VvariablePrice
p1572
(dp1573
Vprice
p1574
(lp1575
I32
asVrange
p1576
(lp1577
I9999
assVquantity
p1578
(dp1579
Vmax
p1580
I100
sVstep
p1581
I2
sVmin
p1582
I2
ssVlocation
p1583
(lp1584
VPUNJAB
p1585
asVnotLocation
p1586
(lp1587
sa(dp1588
VvariablePrice
p1589
(dp1590
Vprice
p1591
(lp1592
I32
asVrange
p1593
(lp1594
I9999
assVquantity
p1595
(dp1596
Vmax
p1597
I100
sVstep
p1598
I2
sVmin
p1599
I2
ssVlocation
p1600
(lp1601
VHARYANA
p1602
asVnotLocation
p1603
(lp1604
sasVreturnInDays
p1605
I2
sVsellerWarranty
p1606
VNo Warranty
p1607
sasV__v
p1608
I1
sVvideo
p1609
(dp1610
sVsubCategoryFilters
p1611
(dp1612
VMobile
p1613
(lp1614
VApple
p1615
asVPackaging
p1616
(lp1617
VNo
p1618
asVBrand
p1619
(lp1620
VImported
p1621
asVMaterial
p1622
(lp1623
VSilicon
p1624
asVType
p1625
(lp1626
VMeephone
p1627
assVupdatedAt
p1628
g108
(S'\x07\xe1\x05\x19\x105,\x03\xa9\x80'
p1629
tp1630
Rp1631
sVimages
p1632
(lp1633
(dp1634
Vurl
p1635
Vhttps://res.cloudinary.com/prokure/image/upload/v1490098402/Mephone_20Back_20Cover47-600x550_cfsoxy.webp
p1636
sVdefault
p1637
I01
sasVdetails
p1638
(lp1639
(dp1640
Vvalue
p1641
VImported
p1642
sVkey
p1643
VBrand
p1644
sa(dp1645
Vvalue
p1646
VMeephone
p1647
sVkey
p1648
VType
p1649
sa(dp1650
Vvalue
p1651
VApple
p1652
sVkey
p1653
VMobile
p1654
sa(dp1655
Vvalue
p1656
VNo
p1657
sVkey
p1658
VPackaging
p1659
sa(dp1660
Vvalue
p1661
VSilicon
p1662
sVkey
p1663
VMaterial
p1664
sasV_id
p1665
g25
(g26
g27
Ntp1666
Rp1667
S'X\xfd\xf6=\xa5\xb2\xb13\x16\xd5@\xf6'
p1668
bsVcreatedAt
p1669
g108
(S'\x07\xe1\x04\x18\x0c9%\x0e\xc1X'
p1670
tp1671
Rp1672
sVproduct_id
p1673
g25
(g26
g27
Ntp1674
Rp1675
S'X\xd1<\xfe\x9d6y\x00\x10>\xdfG'
p1676
bsa.